; Function Attrs: mustprogress uwtable
define hidden void @_ZN23demodulator_match_substC2ER11ast_manager(ptr noundef nonnull align 8 dereferenceable(161) %0, ptr noundef nonnull align 8 dereferenceable(976) %1) unnamed_addr #3 align 2 personality ptr @__gxx_personality_v0 {
  tail call void @_ZN12substitutionC1ER11ast_manager(ptr noundef nonnull align 8 dereferenceable(124) %0, ptr noundef nonnull align 8 dereferenceable(976) %1)
  %3 = invoke noalias noundef ptr @_ZN6memory8allocateEm(i64 noundef 192)
          to label %.lr.ph.i.i.i.i.i.i.i unwind label %13

.lr.ph.i.i.i.i.i.i.i:                             ; preds = %2, %.lr.ph.i.i.i.i.i.i.i
  %.08.i.i.i.i.i.i.i = phi ptr [ %6, %.lr.ph.i.i.i.i.i.i.i ], [ %3, %2 ]
  %.057.i.i.i.i.i.i.i = phi i32 [ %5, %.lr.ph.i.i.i.i.i.i.i ], [ 8, %2 ]
  %4 = getelementptr inbounds nuw i8, ptr %.08.i.i.i.i.i.i.i, i64 8
  tail call void @llvm.memset.p0.i64(ptr noundef nonnull align 8 dereferenceable(16) %4, i8 0, i64 16, i1 false)
  %5 = add nsw i32 %.057.i.i.i.i.i.i.i, -1
  %6 = getelementptr inbounds nuw i8, ptr %.08.i.i.i.i.i.i.i, i64 24
  %.not.i.i.i.i.i.i.i = icmp eq i32 %5, 0
  br i1 %.not.i.i.i.i.i.i.i, label %7, label %.lr.ph.i.i.i.i.i.i.i, !llvm.loop !193

7:                                                ; preds = %.lr.ph.i.i.i.i.i.i.i
  %8 = getelementptr inbounds nuw i8, ptr %0, i64 128
  store ptr %3, ptr %8, align 8, !tbaa !194
  %9 = getelementptr inbounds nuw i8, ptr %0, i64 136
  store i32 8, ptr %9, align 8, !tbaa !197
  %10 = getelementptr inbounds nuw i8, ptr %0, i64 140
  store i32 0, ptr %10, align 4, !tbaa !198
  %11 = getelementptr inbounds nuw i8, ptr %0, i64 144
  store i32 0, ptr %11, align 8, !tbaa !199
  %12 = getelementptr inbounds nuw i8, ptr %0, i64 152
  store ptr null, ptr %12, align 8, !tbaa !200
  ret void

13:                                               ; preds = %2
  %14 = landingpad { ptr, i32 }
          cleanup
  tail call void @_ZN12substitutionD2Ev(ptr noundef nonnull align 8 dereferenceable(124) %0) #22
  resume { ptr, i32 } %14
}